; Function Attrs: mustprogress nofree norecurse nounwind memory(readwrite, inaccessiblemem: none) uwtable
define dso_local noundef zeroext i1 @_ZN7doctest6detail18checkIfShouldThrowENS_10assertType4EnumE(i32 noundef %0) local_unnamed_addr #29 {
  %2 = and i32 %0, 4
  %.not = icmp eq i32 %2, 0
  br i1 %.not, label %3, label %21

3:                                                ; preds = %1
  %4 = and i32 %0, 2
  %.not2 = icmp eq i32 %4, 0
  br i1 %.not2, label %20, label %5

5:                                                ; preds = %3
  %6 = load ptr, ptr @_ZN7doctest6detail4g_csE, align 8, !tbaa !73
  %7 = getelementptr inbounds nuw i8, ptr %6, i64 100
  %8 = load i32, ptr %7, align 4, !tbaa !130
  %9 = icmp sgt i32 %8, 0
  br i1 %9, label %10, label %20

10:                                               ; preds = %5
  %11 = getelementptr inbounds nuw i8, ptr %6, i64 156
  %12 = load i32, ptr %11, align 4, !tbaa !131
  %13 = getelementptr inbounds nuw i8, ptr %6, i64 2232
  br label %_ZNKSt13__atomic_baseIiE4loadESt12memory_order.exit.us19.i.i

_ZNKSt13__atomic_baseIiE4loadESt12memory_order.exit.us19.i.i: ; preds = %_ZNKSt13__atomic_baseIiE4loadESt12memory_order.exit.us19.i.i, %10
  %.012.us16.i.i = phi i32 [ %15, %_ZNKSt13__atomic_baseIiE4loadESt12memory_order.exit.us19.i.i ], [ 0, %10 ]
  %.010.idx11.us17.i.i = phi i64 [ %.010.add.us21.i.i, %_ZNKSt13__atomic_baseIiE4loadESt12memory_order.exit.us19.i.i ], [ 0, %10 ]
  %.010.ptr.us18.i.i = getelementptr inbounds nuw i8, ptr %13, i64 %.010.idx11.us17.i.i
  %14 = load atomic i32, ptr %.010.ptr.us18.i.i seq_cst, align 4
  %15 = add nsw i32 %14, %.012.us16.i.i
  %.010.add.us21.i.i = add nuw nsw i64 %.010.idx11.us17.i.i, 64
  %.not.us22.i.i = icmp eq i64 %.010.add.us21.i.i, 2048
  br i1 %.not.us22.i.i, label %_ZNK7doctest6detail15MultiLaneAtomicIiEcviEv.exit, label %_ZNKSt13__atomic_baseIiE4loadESt12memory_order.exit.us19.i.i

_ZNK7doctest6detail15MultiLaneAtomicIiEcviEv.exit: ; preds = %_ZNKSt13__atomic_baseIiE4loadESt12memory_order.exit.us19.i.i
  %16 = add nsw i32 %15, %12
  %17 = load ptr, ptr @_ZN7doctest6detail4g_csE, align 8, !tbaa !73
  %18 = getelementptr inbounds nuw i8, ptr %17, i64 100
  %19 = load i32, ptr %18, align 4, !tbaa !130
  %.not3 = icmp slt i32 %16, %19
  br i1 %.not3, label %20, label %21

20:                                               ; preds = %_ZNK7doctest6detail15MultiLaneAtomicIiEcviEv.exit, %5, %3
  br label %21

21:                                               ; preds = %_ZNK7doctest6detail15MultiLaneAtomicIiEcviEv.exit, %1, %20
  %.0 = phi i1 [ false, %20 ], [ true, %1 ], [ true, %_ZNK7doctest6detail15MultiLaneAtomicIiEcviEv.exit ]
  ret i1 %.0
}